; Function Attrs: mustprogress nofree norecurse nosync nounwind willreturn memory(write, inaccessiblemem: none) uwtable
define internal noundef i32 @custom_ext_1_cli_add_cb(ptr readnone captures(none) %0, i32 noundef %1, ptr noundef writeonly captures(none) initializes((0, 8)) %2, ptr noundef writeonly captures(none) initializes((0, 8)) %3, ptr readnone captures(none) %4, ptr readnone captures(none) %5) #12 {
  %.not = icmp eq i32 %1, 1001
  br i1 %.not, label %8, label %7

7:                                                ; preds = %6
  store i1 true, ptr @custom_ext_error, align 4
  br label %8

8:                                                ; preds = %7, %6
  store ptr @custom_ext_cli_string, ptr %2, align 8, !tbaa !21
  store i64 3, ptr %3, align 8, !tbaa !11
  ret i32 1
}